target datalayout = "e-m:e-p270:32:32-p271:32:32-p272:64:64-i64:64-i128:128-f80:128-n8:16:32:64-S128"
target triple = "x86_64-unknown-linux-gnu"

%class.aiMatrix4x4t = type { float, float, float, float, float, float, float, float, float, float, float, float, float, float, float, float }
%struct.aiNode = type { %struct.aiString, %class.aiMatrix4x4t, ptr, i32, ptr, i32, ptr, ptr }
%struct.aiString = type { i32, [1024 x i8] }

; Function Attrs: mustprogress uwtable
define void @_ZNK6Assimp20PretransformVertices22BuildMeshRefCountArrayEPK6aiNodePj(ptr noundef nonnull align 8 dereferenceable(93) %this, ptr noundef %nd, ptr noundef %refs) #3 align 2 {
entry:
  %this.addr = alloca ptr, align 8
  %nd.addr = alloca ptr, align 8
  %refs.addr = alloca ptr, align 8
  %i = alloca i32, align 4
  %i5 = alloca i32, align 4
  store ptr %this, ptr %this.addr, align 8
  store ptr %nd, ptr %nd.addr, align 8
  store ptr %refs, ptr %refs.addr, align 8
  %this1 = load ptr, ptr %this.addr, align 8
  store i32 0, ptr %i, align 4
  br label %for.cond

for.cond:                                         ; preds = %for.inc, %entry
  %0 = load i32, ptr %i, align 4
  %1 = load ptr, ptr %nd.addr, align 8
  %mNumMeshes = getelementptr inbounds %struct.aiNode, ptr %1, i32 0, i32 5
  %2 = load i32, ptr %mNumMeshes, align 8
  %cmp = icmp ult i32 %0, %2
  br i1 %cmp, label %for.body, label %for.end

for.body:                                         ; preds = %for.cond
  %3 = load ptr, ptr %refs.addr, align 8
  %4 = load ptr, ptr %nd.addr, align 8
  %mMeshes = getelementptr inbounds %struct.aiNode, ptr %4, i32 0, i32 6
  %5 = load ptr, ptr %mMeshes, align 8
  %6 = load i32, ptr %i, align 4
  %idxprom = zext i32 %6 to i64
  %arrayidx = getelementptr inbounds i32, ptr %5, i64 %idxprom
  %7 = load i32, ptr %arrayidx, align 4
  %idxprom2 = zext i32 %7 to i64
  %arrayidx3 = getelementptr inbounds i32, ptr %3, i64 %idxprom2
  %8 = load i32, ptr %arrayidx3, align 4
  %inc = add i32 %8, 1
  store i32 %inc, ptr %arrayidx3, align 4
  br label %for.inc

for.inc:                                          ; preds = %for.body
  %9 = load i32, ptr %i, align 4
  %inc4 = add i32 %9, 1
  store i32 %inc4, ptr %i, align 4
  br label %for.cond, !llvm.loop !26

for.end:                                          ; preds = %for.cond
  store i32 0, ptr %i5, align 4
  br label %for.cond6

for.cond6:                                        ; preds = %for.inc11, %for.end
  %10 = load i32, ptr %i5, align 4
  %11 = load ptr, ptr %nd.addr, align 8
  %mNumChildren = getelementptr inbounds %struct.aiNode, ptr %11, i32 0, i32 3
  %12 = load i32, ptr %mNumChildren, align 8
  %cmp7 = icmp ult i32 %10, %12
  br i1 %cmp7, label %for.body8, label %for.end13

for.body8:                                        ; preds = %for.cond6
  %13 = load ptr, ptr %nd.addr, align 8
  %mChildren = getelementptr inbounds %struct.aiNode, ptr %13, i32 0, i32 4
  %14 = load ptr, ptr %mChildren, align 8
  %15 = load i32, ptr %i5, align 4
  %idxprom9 = zext i32 %15 to i64
  %arrayidx10 = getelementptr inbounds ptr, ptr %14, i64 %idxprom9
  %16 = load ptr, ptr %arrayidx10, align 8
  %17 = load ptr, ptr %refs.addr, align 8
  call void @_ZNK6Assimp20PretransformVertices22BuildMeshRefCountArrayEPK6aiNodePj(ptr noundef nonnull align 8 dereferenceable(93) %this1, ptr noundef %16, ptr noundef %17)
  br label %for.inc11

for.inc11:                                        ; preds = %for.body8
  %18 = load i32, ptr %i5, align 4
  %inc12 = add i32 %18, 1
  store i32 %inc12, ptr %i5, align 4
  br label %for.cond6, !llvm.loop !27

for.end13:                                        ; preds = %for.cond6
  ret void
}