; Function Attrs: mustprogress nofree nosync nounwind memory(readwrite, inaccessiblemem: none) uwtable
define void @_ZNK6Assimp20PretransformVertices22BuildMeshRefCountArrayEPK6aiNodePj(ptr nocapture noundef nonnull readnone align 8 dereferenceable(93) %this, ptr nocapture noundef readonly %nd, ptr nocapture noundef %refs) local_unnamed_addr #9 align 2 {
entry:
  %mNumMeshes = getelementptr inbounds i8, ptr %nd, i64 1120
  %0 = load i32, ptr %mNumMeshes, align 8
  %cmp9.not = icmp eq i32 %0, 0
  br i1 %cmp9.not, label %for.cond6.preheader, label %for.body.lr.ph

for.body.lr.ph:                                   ; preds = %entry
  %mMeshes = getelementptr inbounds i8, ptr %nd, i64 1128
  br label %for.body

for.cond6.preheader:                              ; preds = %for.body, %entry
  %mNumChildren = getelementptr inbounds i8, ptr %nd, i64 1104
  %1 = load i32, ptr %mNumChildren, align 8
  %cmp711.not = icmp eq i32 %1, 0
  br i1 %cmp711.not, label %for.end13, label %for.body8.lr.ph

for.body8.lr.ph:                                  ; preds = %for.cond6.preheader
  %mChildren = getelementptr inbounds i8, ptr %nd, i64 1112
  br label %for.body8

for.body:                                         ; preds = %for.body.lr.ph, %for.body
  %indvars.iv = phi i64 [ 0, %for.body.lr.ph ], [ %indvars.iv.next, %for.body ]
  %2 = load ptr, ptr %mMeshes, align 8
  %arrayidx = getelementptr inbounds i32, ptr %2, i64 %indvars.iv
  %3 = load i32, ptr %arrayidx, align 4
  %idxprom2 = zext i32 %3 to i64
  %arrayidx3 = getelementptr inbounds i32, ptr %refs, i64 %idxprom2
  %4 = load i32, ptr %arrayidx3, align 4
  %inc = add i32 %4, 1
  store i32 %inc, ptr %arrayidx3, align 4
  %indvars.iv.next = add nuw nsw i64 %indvars.iv, 1
  %5 = load i32, ptr %mNumMeshes, align 8
  %6 = zext i32 %5 to i64
  %cmp = icmp ult i64 %indvars.iv.next, %6
  br i1 %cmp, label %for.body, label %for.cond6.preheader, !llvm.loop !26

for.body8:                                        ; preds = %for.body8.lr.ph, %for.body8
  %indvars.iv14 = phi i64 [ 0, %for.body8.lr.ph ], [ %indvars.iv.next15, %for.body8 ]
  %7 = load ptr, ptr %mChildren, align 8
  %arrayidx10 = getelementptr inbounds ptr, ptr %7, i64 %indvars.iv14
  %8 = load ptr, ptr %arrayidx10, align 8
  tail call void @_ZNK6Assimp20PretransformVertices22BuildMeshRefCountArrayEPK6aiNodePj(ptr noundef nonnull align 8 dereferenceable(93) %this, ptr noundef %8, ptr noundef %refs)
  %indvars.iv.next15 = add nuw nsw i64 %indvars.iv14, 1
  %9 = load i32, ptr %mNumChildren, align 8
  %10 = zext i32 %9 to i64
  %cmp7 = icmp ult i64 %indvars.iv.next15, %10
  br i1 %cmp7, label %for.body8, label %for.end13, !llvm.loop !27

for.end13:                                        ; preds = %for.body8, %for.cond6.preheader
  ret void
}